target datalayout = "e-m:e-p270:32:32-p271:32:32-p272:64:64-i64:64-i128:128-f80:128-n8:16:32:64-S128"
target triple = "x86_64-pc-linux-gnu"

%struct.ident_t = type { i32, i32, i32, i32, ptr }
%"class.ncnn::Mat" = type { ptr, ptr, i64, i32, ptr, i32, i32, i32, i32, i32, i64 }

@1 = private unnamed_addr constant %struct.ident_t { i32 0, i32 514, i32 0, i32 22, ptr @0 }, align 8

; Function Attrs: noinline noreturn nounwind uwtable
define linkonce_odr hidden void @__clang_call_terminate(ptr noundef %0) #6 comdat {
  %2 = call ptr @__cxa_begin_catch(ptr %0) #10
  call void @_ZSt9terminatev() #17
  unreachable
}

; Function Attrs: alwaysinline mustprogress nounwind uwtable
define linkonce_odr hidden noundef nonnull align 4 dereferenceable(4) ptr @_ZNK4ncnn3MatixEm(ptr noundef nonnull align 8 dereferenceable(72) %0, i64 noundef %1) #3 comdat align 2 {
  %3 = alloca ptr, align 8
  %4 = alloca i64, align 8
  store ptr %0, ptr %3, align 8, !tbaa !42
  store i64 %1, ptr %4, align 8, !tbaa !61
  %5 = load ptr, ptr %3, align 8
  %6 = getelementptr inbounds nuw %"class.ncnn::Mat", ptr %5, i32 0, i32 0
  %7 = load ptr, ptr %6, align 8, !tbaa !53
  %8 = load i64, ptr %4, align 8, !tbaa !61
  %9 = getelementptr inbounds nuw float, ptr %7, i64 %8
  ret ptr %9
}

; Function Attrs: alwaysinline mustprogress nounwind uwtable
define linkonce_odr hidden noundef ptr @_ZN4ncnn3Mat3rowEi(ptr noundef nonnull align 8 dereferenceable(72) %0, i32 noundef %1) #3 comdat align 2 {
  %3 = alloca ptr, align 8
  %4 = alloca i32, align 4
  store ptr %0, ptr %3, align 8, !tbaa !42
  store i32 %1, ptr %4, align 4, !tbaa !44
  %5 = load ptr, ptr %3, align 8
  %6 = getelementptr inbounds nuw %"class.ncnn::Mat", ptr %5, i32 0, i32 0
  %7 = load ptr, ptr %6, align 8, !tbaa !53
  %8 = getelementptr inbounds nuw %"class.ncnn::Mat", ptr %5, i32 0, i32 6
  %9 = load i32, ptr %8, align 4, !tbaa !45
  %10 = sext i32 %9 to i64
  %11 = load i32, ptr %4, align 4, !tbaa !44
  %12 = sext i32 %11 to i64
  %13 = mul i64 %10, %12
  %14 = getelementptr inbounds nuw %"class.ncnn::Mat", ptr %5, i32 0, i32 2
  %15 = load i64, ptr %14, align 8, !tbaa !55
  %16 = mul i64 %13, %15
  %17 = getelementptr inbounds nuw i8, ptr %7, i64 %16
  ret ptr %17
}

; Function Attrs: alwaysinline norecurse nounwind uwtable
define internal void @_ZNK4ncnn5Scale15forward_inplaceERSt6vectorINS_3MatESaIS2_EERKNS_6OptionE.omp_outlined.3(ptr noalias noundef %0, ptr noalias noundef %1, ptr noundef nonnull align 4 dereferenceable(4) %2, ptr noundef nonnull align 8 dereferenceable(72) %3, ptr noundef nonnull align 8 dereferenceable(72) %4, ptr noundef nonnull align 4 dereferenceable(4) %5) #9 personality ptr @__gxx_personality_v0 {
  %7 = alloca ptr, align 8
  %8 = alloca ptr, align 8
  %9 = alloca ptr, align 8
  %10 = alloca ptr, align 8
  %11 = alloca ptr, align 8
  %12 = alloca ptr, align 8
  %13 = alloca ptr, align 8
  %14 = alloca ptr, align 8
  %15 = alloca i32, align 4
  %16 = alloca i32, align 4
  %17 = alloca i32, align 4
  %18 = alloca i32, align 4
  %19 = alloca i32, align 4
  %20 = alloca i32, align 4
  %21 = alloca i32, align 4
  %22 = alloca i32, align 4
  %23 = alloca i32, align 4
  %24 = alloca ptr, align 8
  %25 = alloca float, align 4
  %26 = alloca i32, align 4
  store ptr %0, ptr %7, align 8, !tbaa !63
  store ptr %1, ptr %8, align 8, !tbaa !63
  store ptr %2, ptr %9, align 8, !tbaa !63
  store ptr %3, ptr %10, align 8, !tbaa !42
  store ptr %4, ptr %11, align 8, !tbaa !42
  store ptr %5, ptr %12, align 8, !tbaa !63
  %27 = load ptr, ptr %9, align 8, !tbaa !63
  %28 = load ptr, ptr %10, align 8, !tbaa !42
  %29 = load ptr, ptr %11, align 8, !tbaa !42
  %30 = load ptr, ptr %12, align 8, !tbaa !63
  store ptr %28, ptr %13, align 8
  store ptr %29, ptr %14, align 8
  call void @llvm.lifetime.start.p0(i64 4, ptr %15) #10
  call void @llvm.lifetime.start.p0(i64 4, ptr %16) #10
  %31 = load i32, ptr %27, align 4, !tbaa !44
  store i32 %31, ptr %16, align 4, !tbaa !44
  call void @llvm.lifetime.start.p0(i64 4, ptr %17) #10
  %32 = load i32, ptr %16, align 4, !tbaa !44
  %33 = sub nsw i32 %32, 0
  %34 = sdiv i32 %33, 1
  %35 = sub nsw i32 %34, 1
  store i32 %35, ptr %17, align 4, !tbaa !44
  call void @llvm.lifetime.start.p0(i64 4, ptr %18) #10
  store i32 0, ptr %18, align 4, !tbaa !44
  call void @llvm.lifetime.end.p0(i64 4, ptr %18) #10
  %36 = load i32, ptr %16, align 4, !tbaa !44
  %37 = icmp slt i32 0, %36
  br i1 %37, label %38, label %96

38:                                               ; preds = %6
  call void @llvm.lifetime.start.p0(i64 4, ptr %19) #10
  store i32 0, ptr %19, align 4, !tbaa !44
  call void @llvm.lifetime.start.p0(i64 4, ptr %20) #10
  %39 = load i32, ptr %17, align 4, !tbaa !44
  store i32 %39, ptr %20, align 4, !tbaa !44
  call void @llvm.lifetime.start.p0(i64 4, ptr %21) #10
  store i32 1, ptr %21, align 4, !tbaa !44
  call void @llvm.lifetime.start.p0(i64 4, ptr %22) #10
  store i32 0, ptr %22, align 4, !tbaa !44
  call void @llvm.lifetime.start.p0(i64 4, ptr %23) #10
  %40 = load ptr, ptr %7, align 8
  %41 = load i32, ptr %40, align 4, !tbaa !44
  call void @__kmpc_for_static_init_4(ptr @1, i32 %41, i32 34, ptr %22, ptr %19, ptr %20, ptr %21, i32 1, i32 1)
  %42 = load i32, ptr %20, align 4, !tbaa !44
  %43 = load i32, ptr %17, align 4, !tbaa !44
  %44 = icmp sgt i32 %42, %43
  br i1 %44, label %45, label %47

45:                                               ; preds = %38
  %46 = load i32, ptr %17, align 4, !tbaa !44
  br label %49

47:                                               ; preds = %38
  %48 = load i32, ptr %20, align 4, !tbaa !44
  br label %49

49:                                               ; preds = %47, %45
  %50 = phi i32 [ %46, %45 ], [ %48, %47 ]
  store i32 %50, ptr %20, align 4, !tbaa !44
  %51 = load i32, ptr %19, align 4, !tbaa !44
  store i32 %51, ptr %15, align 4, !tbaa !44
  br label %52

52:                                               ; preds = %89, %49
  %53 = load i32, ptr %15, align 4, !tbaa !44
  %54 = load i32, ptr %20, align 4, !tbaa !44
  %55 = icmp sle i32 %53, %54
  br i1 %55, label %57, label %56

56:                                               ; preds = %52
  br label %92

57:                                               ; preds = %52
  %58 = load i32, ptr %15, align 4, !tbaa !44
  %59 = mul nsw i32 %58, 1
  %60 = add nsw i32 0, %59
  store i32 %60, ptr %23, align 4, !tbaa !44
  call void @llvm.lifetime.start.p0(i64 8, ptr %24) #10
  %61 = load ptr, ptr %13, align 8, !tbaa !42
  %62 = load i32, ptr %23, align 4, !tbaa !44
  %63 = invoke noundef ptr @_ZN4ncnn3Mat3rowEi(ptr noundef nonnull align 8 dereferenceable(72) %61, i32 noundef %62)
          to label %64 unwind label %97

64:                                               ; preds = %57
  store ptr %63, ptr %24, align 8, !tbaa !46
  call void @llvm.lifetime.start.p0(i64 4, ptr %25) #10
  %65 = load ptr, ptr %14, align 8, !tbaa !42
  %66 = load i32, ptr %23, align 4, !tbaa !44
  %67 = sext i32 %66 to i64
  %68 = invoke noundef nonnull align 4 dereferenceable(4) ptr @_ZNK4ncnn3MatixEm(ptr noundef nonnull align 8 dereferenceable(72) %65, i64 noundef %67)
          to label %69 unwind label %97

69:                                               ; preds = %64
  %70 = load float, ptr %68, align 4, !tbaa !67
  store float %70, ptr %25, align 4, !tbaa !67
  call void @llvm.lifetime.start.p0(i64 4, ptr %26) #10
  store i32 0, ptr %26, align 4, !tbaa !44
  br label %71

71:                                               ; preds = %84, %69
  %72 = load i32, ptr %26, align 4, !tbaa !44
  %73 = load i32, ptr %30, align 4, !tbaa !44
  %74 = icmp slt i32 %72, %73
  br i1 %74, label %76, label %75

75:                                               ; preds = %71
  call void @llvm.lifetime.end.p0(i64 4, ptr %26) #10
  br label %87

76:                                               ; preds = %71
  %77 = load float, ptr %25, align 4, !tbaa !67
  %78 = load ptr, ptr %24, align 8, !tbaa !46
  %79 = load i32, ptr %26, align 4, !tbaa !44
  %80 = sext i32 %79 to i64
  %81 = getelementptr inbounds float, ptr %78, i64 %80
  %82 = load float, ptr %81, align 4, !tbaa !67
  %83 = fmul fast float %82, %77
  store float %83, ptr %81, align 4, !tbaa !67
  br label %84

84:                                               ; preds = %76
  %85 = load i32, ptr %26, align 4, !tbaa !44
  %86 = add nsw i32 %85, 1
  store i32 %86, ptr %26, align 4, !tbaa !44
  br label %71, !llvm.loop !73

87:                                               ; preds = %75
  call void @llvm.lifetime.end.p0(i64 4, ptr %25) #10
  call void @llvm.lifetime.end.p0(i64 8, ptr %24) #10
  br label %88

88:                                               ; preds = %87
  br label %89

89:                                               ; preds = %88
  %90 = load i32, ptr %15, align 4, !tbaa !44
  %91 = add nsw i32 %90, 1
  store i32 %91, ptr %15, align 4, !tbaa !44
  br label %52

92:                                               ; preds = %56
  br label %93

93:                                               ; preds = %92
  %94 = load ptr, ptr %7, align 8
  %95 = load i32, ptr %94, align 4, !tbaa !44
  call void @__kmpc_for_static_fini(ptr @1, i32 %95)
  call void @llvm.lifetime.end.p0(i64 4, ptr %23) #10
  call void @llvm.lifetime.end.p0(i64 4, ptr %22) #10
  call void @llvm.lifetime.end.p0(i64 4, ptr %21) #10
  call void @llvm.lifetime.end.p0(i64 4, ptr %20) #10
  call void @llvm.lifetime.end.p0(i64 4, ptr %19) #10
  br label %96

96:                                               ; preds = %93, %6
  call void @llvm.lifetime.end.p0(i64 4, ptr %17) #10
  call void @llvm.lifetime.end.p0(i64 4, ptr %16) #10
  call void @llvm.lifetime.end.p0(i64 4, ptr %15) #10
  ret void

97:                                               ; preds = %64, %57
  %98 = landingpad { ptr, i32 }
          catch ptr null
  %99 = extractvalue { ptr, i32 } %98, 0
  call void @__clang_call_terminate(ptr %99) #17
  unreachable
}