; Function Attrs: alwaysinline norecurse nounwind uwtable
define internal void @_ZNK4ncnn5Scale15forward_inplaceERSt6vectorINS_3MatESaIS2_EERKNS_6OptionE.omp_outlined.3(ptr noalias noundef readonly captures(none) %0, ptr noalias readnone captures(none) %1, ptr noundef nonnull readonly align 4 captures(none) dereferenceable(4) %2, ptr noundef nonnull readonly align 8 captures(none) dereferenceable(72) %3, ptr noundef nonnull readonly align 8 captures(none) dereferenceable(72) %4, ptr noundef nonnull readonly align 4 captures(none) dereferenceable(4) %5) #9 personality ptr @__gxx_personality_v0 {
  %7 = alloca i32, align 4
  %8 = alloca i32, align 4
  %9 = alloca i32, align 4
  %10 = alloca i32, align 4
  %11 = load i32, ptr %2, align 4, !tbaa !44
  %12 = icmp sgt i32 %11, 0
  br i1 %12, label %13, label %37

13:                                               ; preds = %6
  %14 = add nsw i32 %11, -1
  call void @llvm.lifetime.start.p0(i64 4, ptr nonnull %7) #10
  store i32 0, ptr %7, align 4, !tbaa !44
  call void @llvm.lifetime.start.p0(i64 4, ptr nonnull %8) #10
  store i32 %14, ptr %8, align 4, !tbaa !44
  call void @llvm.lifetime.start.p0(i64 4, ptr nonnull %9) #10
  store i32 1, ptr %9, align 4, !tbaa !44
  call void @llvm.lifetime.start.p0(i64 4, ptr nonnull %10) #10
  store i32 0, ptr %10, align 4, !tbaa !44
  %15 = load i32, ptr %0, align 4, !tbaa !44
  call void @__kmpc_for_static_init_4(ptr nonnull @1, i32 %15, i32 34, ptr nonnull %10, ptr nonnull %7, ptr nonnull %8, ptr nonnull %9, i32 1, i32 1)
  %16 = load i32, ptr %8, align 4, !tbaa !44
  %17 = call i32 @llvm.smin.i32(i32 %16, i32 %14)
  store i32 %17, ptr %8, align 4, !tbaa !44
  %18 = load i32, ptr %7, align 4, !tbaa !44
  %.not24 = icmp sgt i32 %18, %17
  br i1 %.not24, label %._crit_edge28, label %.lr.ph27

.lr.ph27:                                         ; preds = %13
  %19 = load ptr, ptr %3, align 8, !tbaa !16
  %20 = getelementptr inbounds nuw i8, ptr %3, i64 44
  %21 = load i32, ptr %20, align 4, !tbaa !39
  %22 = sext i32 %21 to i64
  %23 = getelementptr inbounds nuw i8, ptr %3, i64 16
  %24 = load i64, ptr %23, align 8, !tbaa !36
  %factor.op.mul = mul i64 %24, %22
  %25 = load ptr, ptr %4, align 8, !tbaa !16
  %26 = load i32, ptr %5, align 4, !tbaa !44
  %27 = icmp sgt i32 %26, 0
  br i1 %27, label %.lr.ph.us.preheader, label %._crit_edge28

.lr.ph.us.preheader:                              ; preds = %.lr.ph27
  %28 = sext i32 %18 to i64
  %29 = add nsw i32 %17, 1
  %wide.trip.count = zext nneg i32 %26 to i64
  br label %.lr.ph.us

.lr.ph.us:                                        ; preds = %.lr.ph.us.preheader, %._crit_edge.us
  %indvars.iv31 = phi i64 [ %28, %.lr.ph.us.preheader ], [ %indvars.iv.next32, %._crit_edge.us ]
  %.reass.us = mul i64 %factor.op.mul, %indvars.iv31
  %30 = getelementptr inbounds nuw i8, ptr %19, i64 %.reass.us
  %31 = getelementptr inbounds nuw float, ptr %25, i64 %indvars.iv31
  %32 = load float, ptr %31, align 4, !tbaa !55
  br label %33

33:                                               ; preds = %.lr.ph.us, %33
  %indvars.iv = phi i64 [ 0, %.lr.ph.us ], [ %indvars.iv.next, %33 ]
  %34 = getelementptr inbounds nuw float, ptr %30, i64 %indvars.iv
  %35 = load float, ptr %34, align 4, !tbaa !55
  %36 = fmul fast float %35, %32
  store float %36, ptr %34, align 4, !tbaa !55
  %indvars.iv.next = add nuw nsw i64 %indvars.iv, 1
  %exitcond.not = icmp eq i64 %indvars.iv.next, %wide.trip.count
  br i1 %exitcond.not, label %._crit_edge.us, label %33, !llvm.loop !60

._crit_edge.us:                                   ; preds = %33
  %indvars.iv.next32 = add nsw i64 %indvars.iv31, 1
  %lftr.wideiv = trunc i64 %indvars.iv.next32 to i32
  %exitcond34.not = icmp eq i32 %29, %lftr.wideiv
  br i1 %exitcond34.not, label %._crit_edge28, label %.lr.ph.us

._crit_edge28:                                    ; preds = %._crit_edge.us, %.lr.ph27, %13
  call void @__kmpc_for_static_fini(ptr nonnull @1, i32 %15)
  call void @llvm.lifetime.end.p0(i64 4, ptr nonnull %10) #10
  call void @llvm.lifetime.end.p0(i64 4, ptr nonnull %9) #10
  call void @llvm.lifetime.end.p0(i64 4, ptr nonnull %8) #10
  call void @llvm.lifetime.end.p0(i64 4, ptr nonnull %7) #10
  br label %37

37:                                               ; preds = %._crit_edge28, %6
  ret void
}